target datalayout = "e-m:e-p270:32:32-p271:32:32-p272:64:64-i64:64-i128:128-f80:128-n8:16:32:64-S128"
target triple = "x86_64-unknown-linux-gnu"

%"class.google::protobuf::DescriptorDatabase" = type { ptr }
%"class.std::basic_string_view" = type { i64, ptr }
%"class.google::protobuf::DescriptorPoolDatabase" = type { %"class.google::protobuf::DescriptorDatabase", ptr }

; Function Attrs: mustprogress uwtable
define noundef zeroext i1 @_ZN6google8protobuf22DescriptorPoolDatabase14FindFileByNameERKNSt7__cxx1112basic_stringIcSt11char_traitsIcESaIcEEEPNS0_19FileDescriptorProtoE(ptr noundef nonnull align 8 dereferenceable(16) %this, ptr noundef nonnull align 8 dereferenceable(32) %filename, ptr noundef %output) unnamed_addr #6 align 2 {
entry:
  %retval = alloca i1, align 1
  %this.addr = alloca ptr, align 8
  %filename.addr = alloca ptr, align 8
  %output.addr = alloca ptr, align 8
  %file = alloca ptr, align 8
  %agg.tmp = alloca %"class.std::basic_string_view", align 8
  store ptr %this, ptr %this.addr, align 8
  store ptr %filename, ptr %filename.addr, align 8
  store ptr %output, ptr %output.addr, align 8
  %this1 = load ptr, ptr %this.addr, align 8
  %pool_ = getelementptr inbounds %"class.google::protobuf::DescriptorPoolDatabase", ptr %this1, i32 0, i32 1
  %0 = load ptr, ptr %pool_, align 8
  %1 = load ptr, ptr %filename.addr, align 8
  %call = call { i64, ptr } @_ZNKSt7__cxx1112basic_stringIcSt11char_traitsIcESaIcEEcvSt17basic_string_viewIcS2_EEv(ptr noundef nonnull align 8 dereferenceable(32) %1) #3
  %2 = getelementptr inbounds { i64, ptr }, ptr %agg.tmp, i32 0, i32 0
  %3 = extractvalue { i64, ptr } %call, 0
  store i64 %3, ptr %2, align 8
  %4 = getelementptr inbounds { i64, ptr }, ptr %agg.tmp, i32 0, i32 1
  %5 = extractvalue { i64, ptr } %call, 1
  store ptr %5, ptr %4, align 8
  %6 = getelementptr inbounds { i64, ptr }, ptr %agg.tmp, i32 0, i32 0
  %7 = load i64, ptr %6, align 8
  %8 = getelementptr inbounds { i64, ptr }, ptr %agg.tmp, i32 0, i32 1
  %9 = load ptr, ptr %8, align 8
  %call2 = call noundef ptr @_ZNK6google8protobuf14DescriptorPool14FindFileByNameESt17basic_string_viewIcSt11char_traitsIcEE(ptr noundef nonnull align 8 dereferenceable(96) %0, i64 %7, ptr %9)
  store ptr %call2, ptr %file, align 8
  %10 = load ptr, ptr %file, align 8
  %cmp = icmp eq ptr %10, null
  br i1 %cmp, label %if.then, label %if.end

if.then:                                          ; preds = %entry
  store i1 false, ptr %retval, align 1
  br label %return

if.end:                                           ; preds = %entry
  %11 = load ptr, ptr %output.addr, align 8
  call void @_ZN6google8protobuf19FileDescriptorProto5ClearEv(ptr noundef nonnull align 8 dereferenceable(224) %11)
  %12 = load ptr, ptr %file, align 8
  %13 = load ptr, ptr %output.addr, align 8
  call void @_ZNK6google8protobuf14FileDescriptor6CopyToEPNS0_19FileDescriptorProtoE(ptr noundef nonnull align 8 dereferenceable(168) %12, ptr noundef %13)
  store i1 true, ptr %retval, align 1
  br label %return

return:                                           ; preds = %if.end, %if.then
  %14 = load i1, ptr %retval, align 1
  ret i1 %14
}